; Function Attrs: mustprogress uwtable
define hidden void @_ZN3smt12relevancy_eh21mark_args_as_relevantERNS_20relevancy_propagatorEP3app(ptr noundef nonnull readnone align 8 captures(none) dereferenceable(8) %0, ptr noundef nonnull align 8 dereferenceable(16) %1, ptr noundef readonly captures(none) %2) local_unnamed_addr #4 align 2 {
  %4 = getelementptr inbounds nuw i8, ptr %2, i64 24
  %5 = load i32, ptr %4, align 8, !tbaa !6
  %.not5 = icmp eq i32 %5, 0
  br i1 %.not5, label %._crit_edge, label %.lr.ph

.lr.ph:                                           ; preds = %3
  %6 = getelementptr inbounds nuw i8, ptr %2, i64 32
  %7 = zext i32 %5 to i64
  br label %8

8:                                                ; preds = %.lr.ph, %8
  %indvars.iv = phi i64 [ %7, %.lr.ph ], [ %9, %8 ]
  %9 = add nsw i64 %indvars.iv, -1
  %10 = getelementptr inbounds nuw [0 x ptr], ptr %6, i64 0, i64 %9
  %11 = load ptr, ptr %10, align 8, !tbaa !15
  %12 = load ptr, ptr %1, align 8, !tbaa !3
  %13 = getelementptr inbounds nuw i8, ptr %12, i64 48
  %14 = load ptr, ptr %13, align 8
  tail call void %14(ptr noundef nonnull align 8 dereferenceable(16) %1, ptr noundef %11)
  %.not.wide = icmp eq i64 %9, 0
  br i1 %.not.wide, label %._crit_edge, label %8, !llvm.loop !17

._crit_edge:                                      ; preds = %8, %3
  ret void
}